target datalayout = "e-m:e-p270:32:32-p271:32:32-p272:64:64-i64:64-i128:128-f80:128-n8:16:32:64-S128"
target triple = "x86_64-pc-linux-gnu"

%struct.crypto_ex_data_st = type { ptr, ptr }
%struct.x509_store_ctx_st = type { ptr, ptr, ptr, ptr, ptr, ptr, ptr, ptr, ptr, ptr, ptr, ptr, ptr, ptr, ptr, ptr, ptr, ptr, i32, i32, ptr, ptr, i32, i32, i32, ptr, ptr, ptr, i32, i32, ptr, %struct.crypto_ex_data_st, ptr, i32, ptr, ptr, ptr }
%struct.X509_VERIFY_PARAM_st = type { ptr, i64, i32, i64, i32, i32, i32, i32, ptr, ptr, i32, ptr, ptr, i64, ptr, i64 }

; Function Attrs: inlinehint nounwind uwtable
define internal ptr @ossl_check_const_X509_sk_type(ptr noundef %0) #3 {
  %2 = alloca ptr, align 8
  store ptr %0, ptr %2, align 8, !tbaa !60
  %3 = load ptr, ptr %2, align 8, !tbaa !60
  ret ptr %3
}

; Function Attrs: nounwind uwtable
define internal i32 @verify_cb_cert(ptr noundef %0, ptr noundef %1, i32 noundef %2, i32 noundef %3) #0 {
  %5 = alloca ptr, align 8
  %6 = alloca ptr, align 8
  %7 = alloca i32, align 4
  %8 = alloca i32, align 4
  store ptr %0, ptr %5, align 8, !tbaa !40
  store ptr %1, ptr %6, align 8, !tbaa !3
  store i32 %2, ptr %7, align 4, !tbaa !8
  store i32 %3, ptr %8, align 4, !tbaa !8
  %9 = load i32, ptr %7, align 4, !tbaa !8
  %10 = icmp slt i32 %9, 0
  br i1 %10, label %11, label %15

11:                                               ; preds = %4
  %12 = load ptr, ptr %5, align 8, !tbaa !40
  %13 = getelementptr inbounds nuw %struct.x509_store_ctx_st, ptr %12, i32 0, i32 23
  %14 = load i32, ptr %13, align 4, !tbaa !86
  store i32 %14, ptr %7, align 4, !tbaa !8
  br label %19

15:                                               ; preds = %4
  %16 = load i32, ptr %7, align 4, !tbaa !8
  %17 = load ptr, ptr %5, align 8, !tbaa !40
  %18 = getelementptr inbounds nuw %struct.x509_store_ctx_st, ptr %17, i32 0, i32 23
  store i32 %16, ptr %18, align 4, !tbaa !86
  br label %19

19:                                               ; preds = %15, %11
  %20 = load ptr, ptr %6, align 8, !tbaa !3
  %21 = icmp ne ptr %20, null
  br i1 %21, label %22, label %24

22:                                               ; preds = %19
  %23 = load ptr, ptr %6, align 8, !tbaa !3
  br label %31

24:                                               ; preds = %19
  %25 = load ptr, ptr %5, align 8, !tbaa !40
  %26 = getelementptr inbounds nuw %struct.x509_store_ctx_st, ptr %25, i32 0, i32 20
  %27 = load ptr, ptr %26, align 8, !tbaa !61
  %28 = call ptr @ossl_check_const_X509_sk_type(ptr noundef %27)
  %29 = load i32, ptr %7, align 4, !tbaa !8
  %30 = call ptr @OPENSSL_sk_value(ptr noundef %28, i32 noundef %29)
  br label %31

31:                                               ; preds = %24, %22
  %32 = phi ptr [ %23, %22 ], [ %30, %24 ]
  %33 = load ptr, ptr %5, align 8, !tbaa !40
  %34 = getelementptr inbounds nuw %struct.x509_store_ctx_st, ptr %33, i32 0, i32 25
  store ptr %32, ptr %34, align 8, !tbaa !87
  %35 = load i32, ptr %8, align 4, !tbaa !8
  %36 = icmp ne i32 %35, 0
  br i1 %36, label %37, label %41

37:                                               ; preds = %31
  %38 = load i32, ptr %8, align 4, !tbaa !8
  %39 = load ptr, ptr %5, align 8, !tbaa !40
  %40 = getelementptr inbounds nuw %struct.x509_store_ctx_st, ptr %39, i32 0, i32 24
  store i32 %38, ptr %40, align 8, !tbaa !53
  br label %41

41:                                               ; preds = %37, %31
  %42 = load ptr, ptr %5, align 8, !tbaa !40
  %43 = getelementptr inbounds nuw %struct.x509_store_ctx_st, ptr %42, i32 0, i32 7
  %44 = load ptr, ptr %43, align 8, !tbaa !88
  %45 = load ptr, ptr %5, align 8, !tbaa !40
  %46 = call i32 %44(i32 noundef 0, ptr noundef %45)
  ret i32 %46
}

; Function Attrs: nounwind uwtable
define i32 @ossl_x509_check_cert_time(ptr noundef %0, ptr noundef %1, i32 noundef %2) #0 {
  %4 = alloca i32, align 4
  %5 = alloca ptr, align 8
  %6 = alloca ptr, align 8
  %7 = alloca i32, align 4
  %8 = alloca ptr, align 8
  %9 = alloca i32, align 4
  %10 = alloca i32, align 4
  store ptr %0, ptr %5, align 8, !tbaa !40
  store ptr %1, ptr %6, align 8, !tbaa !3
  store i32 %2, ptr %7, align 4, !tbaa !8
  call void @llvm.lifetime.start.p0(i64 8, ptr %8) #8
  call void @llvm.lifetime.start.p0(i64 4, ptr %9) #8
  %11 = load ptr, ptr %5, align 8, !tbaa !40
  %12 = getelementptr inbounds nuw %struct.x509_store_ctx_st, ptr %11, i32 0, i32 4
  %13 = load ptr, ptr %12, align 8, !tbaa !72
  %14 = getelementptr inbounds nuw %struct.X509_VERIFY_PARAM_st, ptr %13, i32 0, i32 3
  %15 = load i64, ptr %14, align 8, !tbaa !73
  %16 = and i64 %15, 2
  %17 = icmp ne i64 %16, 0
  br i1 %17, label %18, label %23

18:                                               ; preds = %3
  %19 = load ptr, ptr %5, align 8, !tbaa !40
  %20 = getelementptr inbounds nuw %struct.x509_store_ctx_st, ptr %19, i32 0, i32 4
  %21 = load ptr, ptr %20, align 8, !tbaa !72
  %22 = getelementptr inbounds nuw %struct.X509_VERIFY_PARAM_st, ptr %21, i32 0, i32 1
  store ptr %22, ptr %8, align 8, !tbaa !77
  br label %34

23:                                               ; preds = %3
  %24 = load ptr, ptr %5, align 8, !tbaa !40
  %25 = getelementptr inbounds nuw %struct.x509_store_ctx_st, ptr %24, i32 0, i32 4
  %26 = load ptr, ptr %25, align 8, !tbaa !72
  %27 = getelementptr inbounds nuw %struct.X509_VERIFY_PARAM_st, ptr %26, i32 0, i32 3
  %28 = load i64, ptr %27, align 8, !tbaa !73
  %29 = and i64 %28, 2097152
  %30 = icmp ne i64 %29, 0
  br i1 %30, label %31, label %32

31:                                               ; preds = %23
  store i32 1, ptr %4, align 4
  store i32 1, ptr %10, align 4
  br label %97

32:                                               ; preds = %23
  store ptr null, ptr %8, align 8, !tbaa !77
  br label %33

33:                                               ; preds = %32
  br label %34

34:                                               ; preds = %33, %18
  %35 = load ptr, ptr %6, align 8, !tbaa !3
  %36 = call ptr @X509_get0_notBefore(ptr noundef %35)
  %37 = load ptr, ptr %8, align 8, !tbaa !77
  %38 = call i32 @X509_cmp_time(ptr noundef %36, ptr noundef %37)
  store i32 %38, ptr %9, align 4, !tbaa !8
  %39 = load i32, ptr %9, align 4, !tbaa !8
  %40 = icmp sge i32 %39, 0
  br i1 %40, label %41, label %45

41:                                               ; preds = %34
  %42 = load i32, ptr %7, align 4, !tbaa !8
  %43 = icmp slt i32 %42, 0
  br i1 %43, label %44, label %45

44:                                               ; preds = %41
  store i32 0, ptr %4, align 4
  store i32 1, ptr %10, align 4
  br label %97

45:                                               ; preds = %41, %34
  %46 = load i32, ptr %9, align 4, !tbaa !8
  %47 = icmp eq i32 %46, 0
  br i1 %47, label %48, label %55

48:                                               ; preds = %45
  %49 = load ptr, ptr %5, align 8, !tbaa !40
  %50 = load ptr, ptr %6, align 8, !tbaa !3
  %51 = load i32, ptr %7, align 4, !tbaa !8
  %52 = call i32 @verify_cb_cert(ptr noundef %49, ptr noundef %50, i32 noundef %51, i32 noundef 13)
  %53 = icmp eq i32 %52, 0
  br i1 %53, label %54, label %55

54:                                               ; preds = %48
  store i32 0, ptr %4, align 4
  store i32 1, ptr %10, align 4
  br label %97

55:                                               ; preds = %48, %45
  %56 = load i32, ptr %9, align 4, !tbaa !8
  %57 = icmp sgt i32 %56, 0
  br i1 %57, label %58, label %65

58:                                               ; preds = %55
  %59 = load ptr, ptr %5, align 8, !tbaa !40
  %60 = load ptr, ptr %6, align 8, !tbaa !3
  %61 = load i32, ptr %7, align 4, !tbaa !8
  %62 = call i32 @verify_cb_cert(ptr noundef %59, ptr noundef %60, i32 noundef %61, i32 noundef 9)
  %63 = icmp eq i32 %62, 0
  br i1 %63, label %64, label %65

64:                                               ; preds = %58
  store i32 0, ptr %4, align 4
  store i32 1, ptr %10, align 4
  br label %97

65:                                               ; preds = %58, %55
  %66 = load ptr, ptr %6, align 8, !tbaa !3
  %67 = call ptr @X509_get0_notAfter(ptr noundef %66)
  %68 = load ptr, ptr %8, align 8, !tbaa !77
  %69 = call i32 @X509_cmp_time(ptr noundef %67, ptr noundef %68)
  store i32 %69, ptr %9, align 4, !tbaa !8
  %70 = load i32, ptr %9, align 4, !tbaa !8
  %71 = icmp sle i32 %70, 0
  br i1 %71, label %72, label %76

72:                                               ; preds = %65
  %73 = load i32, ptr %7, align 4, !tbaa !8
  %74 = icmp slt i32 %73, 0
  br i1 %74, label %75, label %76

75:                                               ; preds = %72
  store i32 0, ptr %4, align 4
  store i32 1, ptr %10, align 4
  br label %97

76:                                               ; preds = %72, %65
  %77 = load i32, ptr %9, align 4, !tbaa !8
  %78 = icmp eq i32 %77, 0
  br i1 %78, label %79, label %86

79:                                               ; preds = %76
  %80 = load ptr, ptr %5, align 8, !tbaa !40
  %81 = load ptr, ptr %6, align 8, !tbaa !3
  %82 = load i32, ptr %7, align 4, !tbaa !8
  %83 = call i32 @verify_cb_cert(ptr noundef %80, ptr noundef %81, i32 noundef %82, i32 noundef 14)
  %84 = icmp eq i32 %83, 0
  br i1 %84, label %85, label %86

85:                                               ; preds = %79
  store i32 0, ptr %4, align 4
  store i32 1, ptr %10, align 4
  br label %97

86:                                               ; preds = %79, %76
  %87 = load i32, ptr %9, align 4, !tbaa !8
  %88 = icmp slt i32 %87, 0
  br i1 %88, label %89, label %96

89:                                               ; preds = %86
  %90 = load ptr, ptr %5, align 8, !tbaa !40
  %91 = load ptr, ptr %6, align 8, !tbaa !3
  %92 = load i32, ptr %7, align 4, !tbaa !8
  %93 = call i32 @verify_cb_cert(ptr noundef %90, ptr noundef %91, i32 noundef %92, i32 noundef 10)
  %94 = icmp eq i32 %93, 0
  br i1 %94, label %95, label %96

95:                                               ; preds = %89
  store i32 0, ptr %4, align 4
  store i32 1, ptr %10, align 4
  br label %97

96:                                               ; preds = %89, %86
  store i32 1, ptr %4, align 4
  store i32 1, ptr %10, align 4
  br label %97

97:                                               ; preds = %96, %95, %85, %75, %64, %54, %44, %31
  call void @llvm.lifetime.end.p0(i64 4, ptr %9) #8
  call void @llvm.lifetime.end.p0(i64 8, ptr %8) #8
  %98 = load i32, ptr %4, align 4
  ret i32 %98
}