; Function Attrs: nounwind uwtable
define range(i32 0, 2) i32 @ossl_x509_check_cert_time(ptr noundef %0, ptr noundef %1, i32 noundef %2) local_unnamed_addr #0 {
  %4 = getelementptr inbounds nuw i8, ptr %0, i64 32
  %5 = load ptr, ptr %4, align 8, !tbaa !49
  %6 = getelementptr inbounds nuw i8, ptr %5, i64 24
  %7 = load i64, ptr %6, align 8, !tbaa !88
  %8 = and i64 %7, 2
  %.not = icmp eq i64 %8, 0
  br i1 %.not, label %11, label %9

9:                                                ; preds = %3
  %10 = getelementptr inbounds nuw i8, ptr %5, i64 8
  br label %13

11:                                               ; preds = %3
  %12 = and i64 %7, 2097152
  %.not31 = icmp eq i64 %12, 0
  br i1 %.not31, label %13, label %97

13:                                               ; preds = %11, %9
  %.0 = phi ptr [ %10, %9 ], [ null, %11 ]
  %14 = tail call ptr @X509_get0_notBefore(ptr noundef %1) #10
  %15 = tail call i32 @X509_cmp_time(ptr noundef %14, ptr noundef %.0)
  %16 = icmp sgt i32 %15, -1
  %17 = icmp slt i32 %2, 0
  %or.cond = and i1 %17, %16
  br i1 %or.cond, label %97, label %18

18:                                               ; preds = %13
  %19 = icmp eq i32 %15, 0
  br i1 %19, label %20, label %37

20:                                               ; preds = %18
  %21 = getelementptr inbounds nuw i8, ptr %0, i64 172
  br i1 %17, label %22, label %24

22:                                               ; preds = %20
  %23 = load i32, ptr %21, align 4, !tbaa !55
  br label %25

24:                                               ; preds = %20
  store i32 %2, ptr %21, align 4, !tbaa !55
  br label %25

25:                                               ; preds = %24, %22
  %.0.i = phi i32 [ %23, %22 ], [ %2, %24 ]
  %.not.i = icmp eq ptr %1, null
  br i1 %.not.i, label %26, label %verify_cb_cert.exit

26:                                               ; preds = %25
  %27 = getelementptr inbounds nuw i8, ptr %0, i64 152
  %28 = load ptr, ptr %27, align 8, !tbaa !56
  %29 = tail call ptr @OPENSSL_sk_value(ptr noundef %28, i32 noundef %.0.i) #10
  br label %verify_cb_cert.exit

verify_cb_cert.exit:                              ; preds = %25, %26
  %30 = phi ptr [ %29, %26 ], [ %1, %25 ]
  %31 = getelementptr inbounds nuw i8, ptr %0, i64 184
  store ptr %30, ptr %31, align 8, !tbaa !57
  %32 = getelementptr inbounds nuw i8, ptr %0, i64 176
  store i32 13, ptr %32, align 8, !tbaa !58
  %33 = getelementptr inbounds nuw i8, ptr %0, i64 56
  %34 = load ptr, ptr %33, align 8, !tbaa !59
  %35 = tail call i32 %34(i32 noundef 0, ptr noundef nonnull %0) #10
  %36 = icmp eq i32 %35, 0
  br i1 %36, label %97, label %.thread

37:                                               ; preds = %18
  %38 = icmp sgt i32 %15, 0
  br i1 %38, label %39, label %.thread

39:                                               ; preds = %37
  %40 = getelementptr inbounds nuw i8, ptr %0, i64 172
  br i1 %17, label %41, label %43

41:                                               ; preds = %39
  %42 = load i32, ptr %40, align 4, !tbaa !55
  br label %44

43:                                               ; preds = %39
  store i32 %2, ptr %40, align 4, !tbaa !55
  br label %44

44:                                               ; preds = %43, %41
  %.0.i32 = phi i32 [ %42, %41 ], [ %2, %43 ]
  %.not.i33 = icmp eq ptr %1, null
  br i1 %.not.i33, label %45, label %verify_cb_cert.exit34

45:                                               ; preds = %44
  %46 = getelementptr inbounds nuw i8, ptr %0, i64 152
  %47 = load ptr, ptr %46, align 8, !tbaa !56
  %48 = tail call ptr @OPENSSL_sk_value(ptr noundef %47, i32 noundef %.0.i32) #10
  br label %verify_cb_cert.exit34

verify_cb_cert.exit34:                            ; preds = %44, %45
  %49 = phi ptr [ %48, %45 ], [ %1, %44 ]
  %50 = getelementptr inbounds nuw i8, ptr %0, i64 184
  store ptr %49, ptr %50, align 8, !tbaa !57
  %51 = getelementptr inbounds nuw i8, ptr %0, i64 176
  store i32 9, ptr %51, align 8, !tbaa !58
  %52 = getelementptr inbounds nuw i8, ptr %0, i64 56
  %53 = load ptr, ptr %52, align 8, !tbaa !59
  %54 = tail call i32 %53(i32 noundef 0, ptr noundef nonnull %0) #10
  %55 = icmp eq i32 %54, 0
  br i1 %55, label %97, label %.thread

.thread:                                          ; preds = %verify_cb_cert.exit, %verify_cb_cert.exit34, %37
  %56 = tail call ptr @X509_get0_notAfter(ptr noundef %1) #10
  %57 = tail call i32 @X509_cmp_time(ptr noundef %56, ptr noundef %.0)
  %58 = icmp slt i32 %57, 1
  %or.cond3 = and i1 %17, %58
  br i1 %or.cond3, label %97, label %59

59:                                               ; preds = %.thread
  %60 = icmp eq i32 %57, 0
  br i1 %60, label %61, label %78

61:                                               ; preds = %59
  %62 = getelementptr inbounds nuw i8, ptr %0, i64 172
  br i1 %17, label %63, label %65

63:                                               ; preds = %61
  %64 = load i32, ptr %62, align 4, !tbaa !55
  br label %66

65:                                               ; preds = %61
  store i32 %2, ptr %62, align 4, !tbaa !55
  br label %66

66:                                               ; preds = %65, %63
  %.0.i35 = phi i32 [ %64, %63 ], [ %2, %65 ]
  %.not.i36 = icmp eq ptr %1, null
  br i1 %.not.i36, label %67, label %verify_cb_cert.exit37

67:                                               ; preds = %66
  %68 = getelementptr inbounds nuw i8, ptr %0, i64 152
  %69 = load ptr, ptr %68, align 8, !tbaa !56
  %70 = tail call ptr @OPENSSL_sk_value(ptr noundef %69, i32 noundef %.0.i35) #10
  br label %verify_cb_cert.exit37

verify_cb_cert.exit37:                            ; preds = %66, %67
  %71 = phi ptr [ %70, %67 ], [ %1, %66 ]
  %72 = getelementptr inbounds nuw i8, ptr %0, i64 184
  store ptr %71, ptr %72, align 8, !tbaa !57
  %73 = getelementptr inbounds nuw i8, ptr %0, i64 176
  store i32 14, ptr %73, align 8, !tbaa !58
  %74 = getelementptr inbounds nuw i8, ptr %0, i64 56
  %75 = load ptr, ptr %74, align 8, !tbaa !59
  %76 = tail call i32 %75(i32 noundef 0, ptr noundef nonnull %0) #10
  %77 = icmp eq i32 %76, 0
  br i1 %77, label %97, label %.thread41

78:                                               ; preds = %59
  %79 = icmp slt i32 %57, 0
  br i1 %79, label %80, label %.thread41

80:                                               ; preds = %78
  %81 = getelementptr inbounds nuw i8, ptr %0, i64 172
  br i1 %17, label %82, label %84

82:                                               ; preds = %80
  %83 = load i32, ptr %81, align 4, !tbaa !55
  br label %85

84:                                               ; preds = %80
  store i32 %2, ptr %81, align 4, !tbaa !55
  br label %85

85:                                               ; preds = %84, %82
  %.0.i38 = phi i32 [ %83, %82 ], [ %2, %84 ]
  %.not.i39 = icmp eq ptr %1, null
  br i1 %.not.i39, label %86, label %verify_cb_cert.exit40

86:                                               ; preds = %85
  %87 = getelementptr inbounds nuw i8, ptr %0, i64 152
  %88 = load ptr, ptr %87, align 8, !tbaa !56
  %89 = tail call ptr @OPENSSL_sk_value(ptr noundef %88, i32 noundef %.0.i38) #10
  br label %verify_cb_cert.exit40

verify_cb_cert.exit40:                            ; preds = %85, %86
  %90 = phi ptr [ %89, %86 ], [ %1, %85 ]
  %91 = getelementptr inbounds nuw i8, ptr %0, i64 184
  store ptr %90, ptr %91, align 8, !tbaa !57
  %92 = getelementptr inbounds nuw i8, ptr %0, i64 176
  store i32 10, ptr %92, align 8, !tbaa !58
  %93 = getelementptr inbounds nuw i8, ptr %0, i64 56
  %94 = load ptr, ptr %93, align 8, !tbaa !59
  %95 = tail call i32 %94(i32 noundef 0, ptr noundef nonnull %0) #10
  %96 = icmp eq i32 %95, 0
  br i1 %96, label %97, label %.thread41

.thread41:                                        ; preds = %verify_cb_cert.exit37, %verify_cb_cert.exit40, %78
  br label %97

97:                                               ; preds = %verify_cb_cert.exit40, %verify_cb_cert.exit37, %.thread, %verify_cb_cert.exit34, %verify_cb_cert.exit, %13, %11, %.thread41
  %.030 = phi i32 [ 1, %.thread41 ], [ 1, %11 ], [ 0, %13 ], [ 0, %verify_cb_cert.exit ], [ 0, %verify_cb_cert.exit34 ], [ 0, %.thread ], [ 0, %verify_cb_cert.exit37 ], [ 0, %verify_cb_cert.exit40 ]
  ret i32 %.030
}